target datalayout = "e-m:e-p270:32:32-p271:32:32-p272:64:64-i64:64-i128:128-f80:128-n8:16:32:64-S128"
target triple = "x86_64-pc-linux-gnu"

; Function Attrs: mustprogress nounwind uwtable
define hidden noundef i32 @_ZN8JvmtiEnv23SetHeapSamplingIntervalEi(ptr noundef nonnull align 8 dereferenceable(460) %0, i32 noundef %1) #1 align 2 {
  %3 = alloca i32, align 4
  %4 = alloca ptr, align 8
  %5 = alloca i32, align 4
  store ptr %0, ptr %4, align 8
  store i32 %1, ptr %5, align 4
  %6 = load i32, ptr %5, align 4
  %7 = icmp slt i32 %6, 0
  br i1 %7, label %8, label %9

8:                                                ; preds = %2
  store i32 103, ptr %3, align 4
  br label %11

9:                                                ; preds = %2
  %10 = load i32, ptr %5, align 4
  call void @_ZN17ThreadHeapSampler21set_sampling_intervalEi(i32 noundef %10)
  store i32 0, ptr %3, align 4
  br label %11

11:                                               ; preds = %9, %8
  %12 = load i32, ptr %3, align 4
  ret i32 %12
}