; Function Attrs: mustprogress nounwind uwtable
define hidden noundef range(i32 0, 104) i32 @_ZN8JvmtiEnv23SetHeapSamplingIntervalEi(ptr nocapture noundef nonnull readnone align 8 dereferenceable(460) %0, i32 noundef %1) local_unnamed_addr #0 align 2 {
  %3 = icmp slt i32 %1, 0
  br i1 %3, label %5, label %4

4:                                                ; preds = %2
  tail call void @_ZN17ThreadHeapSampler21set_sampling_intervalEi(i32 noundef %1) #17
  br label %5

5:                                                ; preds = %2, %4
  %.0 = phi i32 [ 0, %4 ], [ 103, %2 ]
  ret i32 %.0
}